Certificate:
    Data:
        Version: 3 (0x2)
        Serial Number: 4096 (0x1000)
    Signature Algorithm: md5WithRSAEncryption
        Issuer: C=US, ST=Utah, L=Layton, O=Devin, CN=Devin/emailAddress=devinsevy33@gmail.com
        Validity
            Not Before: Mar 29 16:32:50 2019 GMT
            Not After : Mar 28 16:32:50 2020 GMT
        Subject: C=US, ST=Utah, O=Devin, CN=Devin/emailAddress=devinsevy33@gmail.com
        Subject Public Key Info:
            Public Key Algorithm: rsaEncryption
                Public-Key: (4096 bit)
                Modulus:
                    00:92:04:20:9b:fe:49:88:26:ab:ae:2f:12:cc:2b:
                    14:47:f4:4b:9c:06:e8:f5:6a:64:7f:de:ad:5a:bc:
                    34:3d:3a:cb:dd:c5:1a:75:7e:3d:41:00:7f:4d:e7:
                    1d:fc:db:a5:28:da:b2:e2:7a:a4:8f:56:6f:d6:e5:
                    80:60:1c:09:b0:e8:18:bb:6a:fb:a2:92:e0:40:6b:
                    13:12:47:ef:97:1b:1d:f9:63:32:d4:45:c5:bc:14:
                    66:dd:9c:3d:93:a9:c6:61:9c:2c:d3:be:ba:32:13:
                    5c:7b:55:46:ef:91:80:de:a6:2e:e3:1d:1a:db:7a:
                    fa:50:48:6e:6b:c1:61:e0:39:47:c6:1b:ee:9a:f3:
                    0d:66:4f:18:be:0b:6b:04:90:1b:6b:ac:7c:00:54:
                    08:94:0e:f4:09:ab:16:7e:aa:9a:e0:21:19:b1:6b:
                    b8:09:4a:75:1f:9b:62:ab:9d:05:a3:65:da:db:d7:
                    94:c4:f4:3a:ed:76:31:aa:d3:9b:71:66:b4:43:1e:
                    38:61:d3:48:db:a7:02:31:1a:74:17:e5:f3:82:18:
                    0d:62:89:71:a2:e9:51:ad:13:b2:ca:b9:3b:93:d2:
                    6e:d1:5f:71:5a:16:a9:85:a8:b8:e7:86:d9:e2:d4:
                    3c:a1:28:7e:05:73:dd:cf:ba:e9:b8:b9:2d:d4:f4:
                    88:4b:29:6c:29:9c:5f:e5:36:12:91:39:b6:6a:ec:
                    47:69:4e:9a:b8:0f:3c:f4:e2:fd:9e:9c:62:89:7b:
                    5e:61:1d:2e:2b:c2:e1:b8:d9:da:f1:a9:58:0e:68:
                    28:35:db:1e:56:92:e7:82:a0:55:37:b5:77:38:8f:
                    a4:1c:f6:62:ac:3e:f3:ae:37:b7:0f:4f:9a:55:f3:
                    1d:97:25:9f:cf:2b:eb:74:94:65:9c:b4:6d:ba:07:
                    b1:5d:3a:ca:06:19:39:b4:aa:f4:ae:f3:06:5a:12:
                    b9:c3:de:36:db:94:c8:85:f9:8e:54:6e:cc:12:2e:
                    e2:35:71:54:2f:65:e6:8d:2e:44:5b:52:46:b9:a4:
                    9e:9a:55:fe:a5:1c:d8:61:1b:c0:4d:dc:6d:c4:a9:
                    55:51:99:82:7d:76:9d:40:6d:3a:4f:5b:d5:40:a6:
                    77:24:56:19:aa:e5:64:95:17:9c:a4:7e:53:c7:96:
                    b0:25:dc:47:1b:dd:1d:b3:d3:a3:a7:68:b8:7f:be:
                    e4:e9:8f:0d:f4:e0:58:4d:49:60:d2:71:7f:ec:3a:
                    b4:b9:86:ee:0e:5f:6b:cb:bd:5a:88:f1:08:d4:5a:
                    63:8c:c1:93:e6:59:04:92:02:3f:b4:23:db:59:e8:
                    9d:de:5a:0c:ba:87:29:dc:7e:be:e3:5d:b2:41:dd:
                    e4:99:09
                Exponent: 65537 (0x10001)
        X509v3 extensions:
            X509v3 Basic Constraints: 
                CA:FALSE
            Netscape Comment: 
                OpenSSL Generated Certificate
            X509v3 Subject Key Identifier: 
                5B:87:96:66:A0:9B:83:C1:B4:56:24:E5:78:AE:C6:ED:3D:0F:A3:5D
            X509v3 Authority Key Identifier: 
                DirName:/C=US/ST=Utah/L=Layton/O=Devin/CN=Devin/emailAddress=devinsevy33@gmail.com
                serial:FE:52:AA:C5:79:6F:DA:5E

    Signature Algorithm: md5WithRSAEncryption
         36:b8:ef:79:c9:bb:6b:7a:a6:c6:04:45:b2:b8:81:ff:2c:9a:
         ae:67:ec:59:c9:38:0e:ea:92:33:3a:b8:3e:b7:d8:30:44:d1:
         91:61:58:12:1f:65:a0:ae:16:c5:86:bb:fa:90:c9:0f:ee:2a:
         c5:77:66:a1:6e:d3:e1:6c:a2:87:4e:c5:7c:2d:56:57:ab:59:
         30:e4:a0:2f:76:ce:f7:c8:35:43:e2:f8:2a:9d:12:aa:a1:31:
         66:68:c4:01:76:f3:99:6b:c7:69:03:28:3f:b1:b8:f1:8b:d8:
         8a:a3:d2:21:d9:8c:95:de:28:7f:57:c2:0d:6b:35:0f:dd:10:
         3f:f0:5b:7f:6a:2f:db:d5:9b:df:d1:d4:de:fc:5d:7e:6e:38:
         16:9d:4c:50:83:14:7f:76:e0:e5:1b:61:e9:d0:87:1a:84:e0:
         6a:02:ce:07:3e:75:0c:0c:c1:65:40:68:ec:32:d2:49:d2:7c:
         c3:60:b7:02:e2:3f:24:e9:6c:83:78:77:89:45:d1:d1:0b:ed:
         d5:aa:43:fe:9a:c0:7c:71:e7:7a:81:d1:38:78:02:1f:5f:fd:
         8f:58:7c:e9:c9:0e:0f:73:5a:6d:e0:f2:c2:ff:59:3f:fe:7e:
         e6:f5:a3:ee:5d:ef:b5:90:3a:7e:df:ab:ba:ac:ea:50:fc:9d:
         d9:ef:de:07:03:e2:0d:69:1a:fc:a3:8f:cc:12:5d:b0:21:a5:
         1f:bd:92:ed:77:e5:46:4d:8b:9c:2b:ce:22:b1:3d:a3:07:99:
         b3:f6:a7:7c:55:3d:b3:d8:05:ac:bd:36:9b:40:ee:e6:88:d7:
         cd:52:a1:47:4b:2c:b0:76:e8:52:46:41:6a:e4:f8:9d:01:88:
         c7:c6:57:62:89:38:06:f9:55:9b:12:14:16:ef:49:7b:87:28:
         dc:ea:60:b5:e8:7e:c4:9e:64:66:67:01:aa:cc:5b:73:2d:3b:
         17:c5:8c:85:9c:91:67:ab:42:97:d9:67:89:aa:82:3c:77:72:
         4d:6c:2d:79:ec:99:18:69:4d:cf:2d:63:f9:4b:9d:00:ce:81:
         46:29:1b:30:7d:a9:ac:72:69:6f:3a:78:5c:7a:bb:63:ab:2b:
         a8:fe:7a:86:46:50:7c:c3:1e:5f:26:4d:7e:90:99:77:5a:fb:
         89:03:58:01:69:dc:aa:6f:2a:82:77:8f:ea:95:6a:c8:49:a5:
         9a:9f:46:87:b6:07:9b:20:87:a5:e5:18:94:48:ed:c3:89:8c:
         0b:10:af:da:85:56:9b:9a:ff:07:3c:d4:f4:30:0f:e9:e7:6a:
         48:dd:3a:ad:d8:b3:8b:55:82:eb:10:f7:34:9b:c9:65:7e:4b:
         bd:7b:0e:5e:8f:45:3b:fc
-----BEGIN CERTIFICATE-----
MIIGPzCCBCegAwIBAgICEAAwDQYJKoZIhvcNAQEEBQAwczELMAkGA1UEBhMCVVMx
DTALBgNVBAgMBFV0YWgxDzANBgNVBAcMBkxheXRvbjEOMAwGA1UECgwFRGV2aW4x
DjAMBgNVBAMMBURldmluMSQwIgYJKoZIhvcNAQkBFhVkZXZpbnNldnkzM0BnbWFp
bC5jb20wHhcNMTkwMzI5MTYzMjUwWhcNMjAwMzI4MTYzMjUwWjBiMQswCQYDVQQG
EwJVUzENMAsGA1UECAwEVXRhaDEOMAwGA1UECgwFRGV2aW4xDjAMBgNVBAMMBURl
dmluMSQwIgYJKoZIhvcNAQkBFhVkZXZpbnNldnkzM0BnbWFpbC5jb20wggIiMA0G
CSqGSIb3DQEBAQUAA4ICDwAwggIKAoICAQCSBCCb/kmIJquuLxLMKxRH9EucBuj1
amR/3q1avDQ9OsvdxRp1fj1BAH9N5x3826Uo2rLieqSPVm/W5YBgHAmw6Bi7avui
kuBAaxMSR++XGx35YzLURcW8FGbdnD2TqcZhnCzTvroyE1x7VUbvkYDepi7jHRrb
evpQSG5rwWHgOUfGG+6a8w1mTxi+C2sEkBtrrHwAVAiUDvQJqxZ+qprgIRmxa7gJ
SnUfm2KrnQWjZdrb15TE9DrtdjGq05txZrRDHjhh00jbpwIxGnQX5fOCGA1iiXGi
6VGtE7LKuTuT0m7RX3FaFqmFqLjnhtni1DyhKH4Fc93Puum4uS3U9IhLKWwpnF/l
NhKRObZq7EdpTpq4Dzz04v2enGKJe15hHS4rwuG42drxqVgOaCg12x5WkueCoFU3
tXc4j6Qc9mKsPvOuN7cPT5pV8x2XJZ/PK+t0lGWctG26B7FdOsoGGTm0qvSu8wZa
ErnD3jbblMiF+Y5UbswSLuI1cVQvZeaNLkRbUka5pJ6aVf6lHNhhG8BN3G3EqVVR
mYJ9dp1AbTpPW9VApnckVhmq5WSVF5ykflPHlrAl3Ecb3R2z06OnaLh/vuTpjw30
4FhNSWDScX/sOrS5hu4OX2vLvVqI8QjUWmOMwZPmWQSSAj+0I9tZ6J3eWgy6hync
fr7jXbJB3eSZCQIDAQABo4HtMIHqMAkGA1UdEwQCMAAwLAYJYIZIAYb4QgENBB8W
HU9wZW5TU0wgR2VuZXJhdGVkIENlcnRpZmljYXRlMB0GA1UdDgQWBBRbh5ZmoJuD
wbRWJOV4rsbtPQ+jXTCBjwYDVR0jBIGHMIGEoXekdTBzMQswCQYDVQQGEwJVUzEN
MAsGA1UECAwEVXRhaDEPMA0GA1UEBwwGTGF5dG9uMQ4wDAYDVQQKDAVEZXZpbjEO
MAwGA1UEAwwFRGV2aW4xJDAiBgkqhkiG9w0BCQEWFWRldmluc2V2eTMzQGdtYWls
LmNvbYIJAP5SqsV5b9peMA0GCSqGSIb3DQEBBAUAA4ICAQA2uO95ybtreqbGBEWy
uIH/LJquZ+xZyTgO6pIzOrg+t9gwRNGRYVgSH2WgrhbFhrv6kMkP7irFd2ahbtPh
bKKHTsV8LVZXq1kw5KAvds73yDVD4vgqnRKqoTFmaMQBdvOZa8dpAyg/sbjxi9iK
o9Ih2YyV3ih/V8INazUP3RA/8Ft/ai/b1Zvf0dTe/F1+bjgWnUxQgxR/duDlG2Hp
0IcahOBqAs4HPnUMDMFlQGjsMtJJ0nzDYLcC4j8k6WyDeHeJRdHRC+3VqkP+msB8
ced6gdE4eAIfX/2PWHzpyQ4Pc1pt4PLC/1k//n7m9aPuXe+1kDp+36u6rOpQ/J3Z
794HA+INaRr8o4/MEl2wIaUfvZLtd+VGTYucK84isT2jB5mz9qd8VT2z2AWsvTab
QO7miNfNUqFHSyywduhSRkFq5PidAYjHxldiiTgG+VWbEhQW70l7hyjc6mC16H7E
nmRmZwGqzFtzLTsXxYyFnJFnq0KX2WeJqoI8d3JNbC157JkYaU3PLWP5S50AzoFG
KRswfamscmlvOnhcertjqyuo/nqGRlB8wx5fJk1+kJl3WvuJA1gBadyqbyqCd4/q
lWrISaWan0aHtgebIIel5RiUSO3DiYwLEK/ahVabmv8HPNT0MA/p52pI3Tqt2LOL
VYLrEPc0m8llfku9ew5ej0U7/A==
-----END CERTIFICATE-----
