Certificate:
    Data:
        Version: 3 (0x2)
        Serial Number: 4096 (0x1000)
    Signature Algorithm: md5WithRSAEncryption
        Issuer: C=US, ST=Utah, L=Layton, O=University of Utah, CN=Devin/emailAddress=devinsevy33@gmail.com
        Validity
            Not Before: Mar 20 03:40:13 2019 GMT
            Not After : Mar 19 03:40:13 2020 GMT
        Subject: C=US, ST=Utah, O=University of Utah, CN=Devin/emailAddress=devinsevy33@gmail.com
        Subject Public Key Info:
            Public Key Algorithm: rsaEncryption
                Public-Key: (4096 bit)
                Modulus:
                    00:dd:e6:7a:87:1b:03:03:37:0c:76:cb:bb:f5:5b:
                    81:52:38:c0:06:5a:b7:e2:72:cb:6c:11:60:ee:c0:
                    31:b0:c5:48:46:15:05:8f:62:01:39:0e:e3:f3:a6:
                    95:22:18:09:2d:fa:38:56:97:d3:5e:5f:64:34:bf:
                    66:31:05:52:9f:dd:38:2a:74:1a:3b:df:f9:76:4f:
                    12:aa:67:dd:84:87:5c:d5:ad:52:a2:b6:25:00:56:
                    8c:97:86:b6:3a:4f:03:45:eb:41:19:ba:f0:79:64:
                    b3:fa:e9:a8:07:94:42:8c:fb:2c:80:bb:1b:31:64:
                    94:5f:e3:07:57:56:3a:98:ce:32:a2:93:a0:88:32:
                    bf:c6:1d:1e:31:f4:17:d1:d8:db:0f:9e:5e:e2:b2:
                    7b:29:4a:92:ac:26:74:41:4d:28:dd:42:32:1d:e5:
                    55:0b:de:3f:3c:35:cf:7a:d5:61:3b:91:3e:19:c4:
                    fc:b0:7a:40:ee:73:fe:cf:1c:6e:dc:4a:1b:28:d8:
                    00:b4:32:19:60:53:88:43:a2:a1:e9:a9:6e:ca:ba:
                    e8:ec:fc:5a:6c:2f:44:8e:d0:90:8d:fa:28:0f:70:
                    a1:45:88:ba:46:fd:04:63:e9:97:87:77:94:d0:83:
                    d0:59:7a:37:c2:ec:91:be:d9:4b:df:0c:bc:15:67:
                    7b:fb:00:6e:98:60:cf:e0:ad:8d:d2:0f:a4:2c:cf:
                    27:4c:2b:a2:84:17:f8:13:df:75:c7:ce:09:b4:c2:
                    d2:33:35:f4:76:9f:72:60:b9:e3:76:7d:61:14:2f:
                    c4:b9:84:db:de:13:12:50:9a:2e:91:07:a3:1f:28:
                    b0:9a:0f:a5:ff:34:fd:6f:45:80:49:45:87:43:0b:
                    ea:50:c6:55:a4:31:5f:97:ee:45:24:1b:7a:d0:c6:
                    d1:d4:34:17:72:3a:a2:81:df:ea:ea:4f:1e:ce:7c:
                    4f:f2:b9:ea:7c:f7:31:e6:10:76:42:12:f6:c3:69:
                    01:97:57:93:94:69:83:ec:89:1e:b2:94:fc:54:69:
                    e7:c1:15:f4:23:be:27:0f:38:a7:d5:f1:b9:14:5d:
                    6f:f3:11:2a:30:5d:fc:26:cc:f4:12:8e:f5:68:5d:
                    e0:51:af:1c:d2:0d:03:0f:fb:25:d7:07:53:c8:3e:
                    1e:ab:b2:07:c6:f3:5c:4c:93:da:61:fc:46:56:0f:
                    0c:f1:80:f0:0c:f7:7e:4c:47:ee:53:e1:22:4f:e6:
                    14:37:cb:79:3a:e4:45:5c:b3:39:86:2a:21:b4:fc:
                    af:01:e0:6f:14:da:c2:6c:d6:cc:8a:d1:e4:86:2c:
                    ce:e5:4b:1b:a6:2c:50:04:79:40:c5:25:8a:9d:1c:
                    3e:ef:3f
                Exponent: 65537 (0x10001)
        X509v3 extensions:
            X509v3 Basic Constraints: 
                CA:FALSE
            Netscape Comment: 
                OpenSSL Generated Certificate
            X509v3 Subject Key Identifier: 
                D1:B1:6C:61:83:C8:B2:D3:82:DF:DB:9F:76:AF:DA:71:7C:E0:A8:58
            X509v3 Authority Key Identifier: 
                DirName:/C=US/ST=Utah/L=Layton/O=University of Utah/CN=Devin/emailAddress=devinsevy33@gmail.com
                serial:EA:6B:3D:AF:7A:AE:60:5F

    Signature Algorithm: md5WithRSAEncryption
         23:8b:a2:b2:d5:bc:19:df:8c:e6:9a:7c:df:03:9a:6e:08:12:
         a6:b6:a3:b6:9b:72:ac:28:f3:c8:ac:79:4b:7a:af:8b:02:1c:
         ce:87:7b:19:86:73:92:42:9b:5a:71:e8:3f:67:76:5d:43:f4:
         9c:6f:8d:cd:65:3b:5a:2e:1c:05:a9:2a:68:e1:7e:4d:64:bc:
         f5:3f:c3:fd:b0:ee:9e:5f:30:e2:55:20:27:08:9a:64:5d:75:
         1d:68:48:bd:05:0a:11:41:8a:8f:f6:a3:bf:ef:b8:03:ae:88:
         ee:1b:ee:59:53:22:70:b2:4a:fb:36:33:d3:d2:21:66:b0:a1:
         b5:ee:a9:94:87:d2:8e:31:3c:de:77:e3:13:5a:e8:04:dc:93:
         3b:d9:ab:01:e5:43:96:1f:05:5f:f5:30:25:54:dc:a3:a8:5a:
         d6:ff:1f:0d:0d:f8:d5:97:b4:4b:b7:4d:21:9e:33:37:cc:4d:
         91:ca:12:b1:eb:79:b2:f8:3f:45:50:42:19:36:fc:ca:7f:59:
         e0:fa:9e:60:ec:62:71:20:57:2c:92:e4:7f:ec:44:64:7b:e2:
         ae:83:10:f8:44:cc:81:b6:eb:8e:7b:22:6f:94:74:15:e8:fb:
         66:67:f4:c7:bc:30:f4:a2:59:c2:8e:38:50:9d:09:34:e7:e1:
         9d:13:cb:26:72:83:a3:36:7e:cf:72:a2:14:95:5e:00:38:e5:
         cc:69:f5:92:cf:88:60:1c:00:69:47:f2:88:2d:1e:51:f9:2e:
         a3:10:2d:e5:f6:bd:6f:b7:db:9d:dd:80:8f:90:fd:8b:d8:47:
         2b:f0:8d:51:6f:cb:56:90:6b:fb:5f:75:ea:bf:66:ff:91:b0:
         3b:2b:dc:6b:28:36:d0:7c:63:f3:e6:4a:22:79:01:ae:14:a4:
         f6:65:1d:8d:00:33:00:5a:db:5a:0f:0a:89:89:c8:e4:13:fc:
         1f:7f:c9:ac:29:45:b6:84:90:67:dd:3e:8f:42:16:02:7f:d0:
         ef:4f:21:49:f6:0e:9d:81:65:75:5c:84:99:78:5b:7c:34:11:
         db:7f:73:d0:12:f6:1a:98:05:0c:0d:10:1d:ea:a3:80:8e:bb:
         d3:bf:07:9b:7a:47:7c:1c:fc:0c:62:81:1a:01:aa:20:c3:6b:
         91:7e:c5:68:47:4a:84:e2:cd:ae:29:12:64:b0:e8:2a:b9:45:
         6d:fa:a0:3d:22:0e:06:52:c5:af:39:59:f7:2c:3f:d7:7e:32:
         ae:67:73:32:39:15:39:b2:8b:49:34:c7:72:92:cc:93:03:10:
         c5:71:fd:99:f3:01:27:b5:72:4a:46:5d:d4:c4:30:0e:b1:52:
         b8:07:eb:c9:86:2b:48:48
-----BEGIN CERTIFICATE-----
MIIGajCCBFKgAwIBAgICEAAwDQYJKoZIhvcNAQEEBQAwgYAxCzAJBgNVBAYTAlVT
MQ0wCwYDVQQIDARVdGFoMQ8wDQYDVQQHDAZMYXl0b24xGzAZBgNVBAoMElVuaXZl
cnNpdHkgb2YgVXRhaDEOMAwGA1UEAwwFRGV2aW4xJDAiBgkqhkiG9w0BCQEWFWRl
dmluc2V2eTMzQGdtYWlsLmNvbTAeFw0xOTAzMjAwMzQwMTNaFw0yMDAzMTkwMzQw
MTNaMG8xCzAJBgNVBAYTAlVTMQ0wCwYDVQQIDARVdGFoMRswGQYDVQQKDBJVbml2
ZXJzaXR5IG9mIFV0YWgxDjAMBgNVBAMMBURldmluMSQwIgYJKoZIhvcNAQkBFhVk
ZXZpbnNldnkzM0BnbWFpbC5jb20wggIiMA0GCSqGSIb3DQEBAQUAA4ICDwAwggIK
AoICAQDd5nqHGwMDNwx2y7v1W4FSOMAGWrficstsEWDuwDGwxUhGFQWPYgE5DuPz
ppUiGAkt+jhWl9NeX2Q0v2YxBVKf3TgqdBo73/l2TxKqZ92Eh1zVrVKitiUAVoyX
hrY6TwNF60EZuvB5ZLP66agHlEKM+yyAuxsxZJRf4wdXVjqYzjKik6CIMr/GHR4x
9BfR2NsPnl7isnspSpKsJnRBTSjdQjId5VUL3j88Nc961WE7kT4ZxPywekDuc/7P
HG7cShso2AC0MhlgU4hDoqHpqW7Kuujs/FpsL0SO0JCN+igPcKFFiLpG/QRj6ZeH
d5TQg9BZejfC7JG+2UvfDLwVZ3v7AG6YYM/grY3SD6QszydMK6KEF/gT33XHzgm0
wtIzNfR2n3JgueN2fWEUL8S5hNveExJQmi6RB6MfKLCaD6X/NP1vRYBJRYdDC+pQ
xlWkMV+X7kUkG3rQxtHUNBdyOqKB3+rqTx7OfE/yuep89zHmEHZCEvbDaQGXV5OU
aYPsiR6ylPxUaefBFfQjvicPOKfV8bkUXW/zESowXfwmzPQSjvVoXeBRrxzSDQMP
+yXXB1PIPh6rsgfG81xMk9ph/EZWDwzxgPAM935MR+5T4SJP5hQ3y3k65EVcszmG
KiG0/K8B4G8U2sJs1syK0eSGLM7lSxumLFAEeUDFJYqdHD7vPwIDAQABo4H9MIH6
MAkGA1UdEwQCMAAwLAYJYIZIAYb4QgENBB8WHU9wZW5TU0wgR2VuZXJhdGVkIENl
cnRpZmljYXRlMB0GA1UdDgQWBBTRsWxhg8iy04Lf2592r9pxfOCoWDCBnwYDVR0j
BIGXMIGUoYGGpIGDMIGAMQswCQYDVQQGEwJVUzENMAsGA1UECAwEVXRhaDEPMA0G
A1UEBwwGTGF5dG9uMRswGQYDVQQKDBJVbml2ZXJzaXR5IG9mIFV0YWgxDjAMBgNV
BAMMBURldmluMSQwIgYJKoZIhvcNAQkBFhVkZXZpbnNldnkzM0BnbWFpbC5jb22C
CQDqaz2veq5gXzANBgkqhkiG9w0BAQQFAAOCAgEAI4uistW8Gd+M5pp83wOabggS
prajtptyrCjzyKx5S3qviwIczod7GYZzkkKbWnHoP2d2XUP0nG+NzWU7Wi4cBakq
aOF+TWS89T/D/bDunl8w4lUgJwiaZF11HWhIvQUKEUGKj/ajv++4A66I7hvuWVMi
cLJK+zYz09IhZrChte6plIfSjjE83nfjE1roBNyTO9mrAeVDlh8FX/UwJVTco6ha
1v8fDQ341Ze0S7dNIZ4zN8xNkcoSset5svg/RVBCGTb8yn9Z4PqeYOxicSBXLJLk
f+xEZHviroMQ+ETMgbbrjnsib5R0Fej7Zmf0x7ww9KJZwo44UJ0JNOfhnRPLJnKD
ozZ+z3KiFJVeADjlzGn1ks+IYBwAaUfyiC0eUfkuoxAt5fa9b7fbnd2Aj5D9i9hH
K/CNUW/LVpBr+1916r9m/5GwOyvcayg20Hxj8+ZKInkBrhSk9mUdjQAzAFrbWg8K
iYnI5BP8H3/JrClFtoSQZ90+j0IWAn/Q708hSfYOnYFldVyEmXhbfDQR239z0BL2
GpgFDA0QHeqjgI67078Hm3pHfBz8DGKBGgGqIMNrkX7FaEdKhOLNrikSZLDoKrlF
bfqgPSIOBlLFrzlZ9yw/134yrmdzMjkVObKLSTTHcpLMkwMQxXH9mfMBJ7VySkZd
1MQwDrFSuAfryYYrSEg=
-----END CERTIFICATE-----
